; Function Attrs: nofree norecurse nosync nounwind memory(readwrite, inaccessiblemem: none) uwtable
define dso_local void @pstrcpy(ptr noundef writeonly %0, i32 noundef %1, ptr nocapture noundef readonly %2) local_unnamed_addr #0 {
  %4 = icmp slt i32 %1, 1
  br i1 %4, label %15, label %.preheader

.preheader:                                       ; preds = %3
  %5 = zext nneg i32 %1 to i64
  %6 = getelementptr i8, ptr %0, i64 %5
  %7 = getelementptr i8, ptr %6, i64 -1
  %8 = load i8, ptr %2, align 1
  %9 = icmp ne i8 %8, 0
  %.not12 = icmp ugt ptr %7, %0
  %or.cond13 = select i1 %9, i1 %.not12, i1 false
  br i1 %or.cond13, label %.lr.ph, label %._crit_edge

.lr.ph:                                           ; preds = %.preheader, %.lr.ph
  %10 = phi i8 [ %13, %.lr.ph ], [ %8, %.preheader ]
  %.015 = phi ptr [ %12, %.lr.ph ], [ %0, %.preheader ]
  %.0914 = phi ptr [ %11, %.lr.ph ], [ %2, %.preheader ]
  %11 = getelementptr i8, ptr %.0914, i64 1
  %12 = getelementptr i8, ptr %.015, i64 1
  store i8 %10, ptr %.015, align 1
  %13 = load i8, ptr %11, align 1
  %14 = icmp ne i8 %13, 0
  %.not = icmp ult ptr %12, %7
  %or.cond = select i1 %14, i1 %.not, i1 false
  br i1 %or.cond, label %.lr.ph, label %._crit_edge

._crit_edge:                                      ; preds = %.lr.ph, %.preheader
  %.0.lcssa = phi ptr [ %0, %.preheader ], [ %12, %.lr.ph ]
  store i8 0, ptr %.0.lcssa, align 1
  br label %15

15:                                               ; preds = %3, %._crit_edge
  ret void
}